; Function Attrs: mustprogress uwtable
define void @ggml_backend_synchronize(ptr noundef %0) local_unnamed_addr #0 {
  %2 = getelementptr inbounds nuw i8, ptr %0, i64 48
  %3 = load ptr, ptr %2, align 8, !tbaa !66
  %4 = icmp eq ptr %3, null
  br i1 %4, label %6, label %5

5:                                                ; preds = %1
  tail call void %3(ptr noundef nonnull %0)
  br label %6

6:                                                ; preds = %1, %5
  ret void
}